; Function Attrs: null_pointer_is_valid sspstrong uwtable
define internal fastcc noundef zeroext i1 @mplog_read_packet(ptr noundef %0, ptr noundef %1, ptr noundef %2, ptr noundef %3) unnamed_addr #0 {
  %5 = alloca [8 x i8], align 1
  call void @llvm.lifetime.start.p0(i64 8, ptr nonnull %5) #4
  %6 = getelementptr inbounds nuw i8, ptr %1, i64 280
  tail call void @ws_buffer_assure_space(ptr noundef nonnull %6, i64 noundef 4100)
  %.val = load ptr, ptr %6, align 8
  %7 = getelementptr i8, ptr %1, i64 296
  %.val95 = load i64, ptr %7, align 8
  %8 = getelementptr i8, ptr %.val, i64 %.val95
  %9 = getelementptr i8, ptr %8, i64 4
  %10 = getelementptr inbounds nuw i8, ptr %5, i64 1
  %11 = getelementptr inbounds nuw i8, ptr %5, i64 2
  %12 = getelementptr inbounds nuw i8, ptr %5, i64 4
  %13 = getelementptr inbounds nuw i8, ptr %5, i64 3
  br label %14

14:                                               ; preds = %48, %4
  %.086 = phi i64 [ 0, %4 ], [ %.187, %48 ]
  %.084 = phi ptr [ %9, %4 ], [ %.185, %48 ]
  %.080 = phi i32 [ 0, %4 ], [ %.282, %48 ]
  %.077 = phi i8 [ -1, %4 ], [ %.279, %48 ]
  %.0 = phi i64 [ 0, %4 ], [ %.2, %48 ]
  %15 = call zeroext i1 @wtap_read_bytes_or_eof(ptr noundef %0, ptr noundef nonnull %5, i32 noundef 8, ptr noundef %2, ptr noundef %3)
  br i1 %15, label %21, label %16

16:                                               ; preds = %14
  %.not = icmp eq i32 %.080, 0
  br i1 %.not, label %.loopexit, label %17

17:                                               ; preds = %16
  %18 = load i32, ptr %2, align 4
  %19 = icmp eq i32 %18, 0
  br i1 %19, label %20, label %.loopexit

20:                                               ; preds = %17
  store i32 -12, ptr %2, align 4
  br label %.loopexit

21:                                               ; preds = %14
  %22 = load i8, ptr %5, align 1
  %23 = load i8, ptr %10, align 1
  %24 = load i32, ptr %12, align 1
  %25 = zext i32 %24 to i64
  %26 = shl nuw nsw i64 %25, 16
  %27 = load i8, ptr %13, align 1
  %28 = zext i8 %27 to i64
  %29 = shl nuw nsw i64 %28, 8
  %30 = or disjoint i64 %29, %26
  %31 = load i8, ptr %11, align 1
  %32 = zext i8 %31 to i64
  %33 = or disjoint i64 %30, %32
  %34 = icmp eq i8 %.077, -1
  %35 = and i8 %23, -4
  %switch = icmp eq i8 %35, 112
  %or.cond92 = and i1 %34, %switch
  %.279 = select i1 %or.cond92, i8 %23, i8 %.077
  %.2 = select i1 %or.cond92, i64 %33, i64 %.0
  %36 = icmp eq i8 %23, %.279
  br i1 %36, label %37, label %45

37:                                               ; preds = %21
  %.not90 = icmp ne i64 %.086, 0
  %38 = sub nsw i64 %33, %.086
  %39 = icmp ugt i64 %38, 20000
  %or.cond = select i1 %.not90, i1 %39, i1 false
  br i1 %or.cond, label %40, label %42

40:                                               ; preds = %37
  %41 = call i64 @file_seek(ptr noundef %0, i64 noundef -8, i32 noundef 1, ptr noundef %2)
  br label %.loopexit

42:                                               ; preds = %37
  %43 = getelementptr i8, ptr %.084, i64 1
  store i8 %22, ptr %.084, align 1
  %44 = add i32 %.080, 1
  br label %48

45:                                               ; preds = %21
  br i1 %switch, label %46, label %48

46:                                               ; preds = %45
  %47 = call i64 @file_seek(ptr noundef %0, i64 noundef -8, i32 noundef 1, ptr noundef %2)
  br label %.loopexit

48:                                               ; preds = %45, %42
  %.187 = phi i64 [ %33, %42 ], [ %.086, %45 ]
  %.185 = phi ptr [ %43, %42 ], [ %.084, %45 ]
  %.282 = phi i32 [ %44, %42 ], [ %.080, %45 ]
  %49 = icmp slt i32 %.282, 4096
  br i1 %49, label %14, label %.loopexit, !llvm.loop !6

.loopexit:                                        ; preds = %48, %16, %20, %17, %46, %40
  %.181 = phi i32 [ %.080, %40 ], [ %.080, %46 ], [ %.080, %20 ], [ %.080, %17 ], [ 0, %16 ], [ %.282, %48 ]
  %.178 = phi i8 [ %23, %40 ], [ %.279, %46 ], [ %.077, %20 ], [ %.077, %17 ], [ %.077, %16 ], [ %.279, %48 ]
  %.1 = phi i64 [ %.2, %40 ], [ %.2, %46 ], [ %.0, %20 ], [ %.0, %17 ], [ %.0, %16 ], [ %.2, %48 ]
  %50 = icmp ne i8 %.178, -1
  br i1 %50, label %51, label %72

51:                                               ; preds = %.loopexit
  store i8 0, ptr %8, align 1
  %52 = and i8 %.178, -3
  %or.cond20 = icmp eq i8 %52, 112
  %spec.select = select i1 %or.cond20, i8 -2, i8 -1
  %53 = getelementptr i8, ptr %8, i64 1
  store i8 %spec.select, ptr %53, align 1
  %54 = lshr i32 %.181, 8
  %55 = trunc i32 %54 to i8
  %56 = getelementptr i8, ptr %8, i64 2
  store i8 %55, ptr %56, align 1
  %57 = trunc i32 %.181 to i8
  %58 = getelementptr i8, ptr %8, i64 3
  store i8 %57, ptr %58, align 1
  store i32 0, ptr %1, align 8
  %59 = call ptr @wtap_block_create(i32 noundef 5)
  %60 = getelementptr inbounds nuw i8, ptr %1, i64 232
  store ptr %59, ptr %60, align 8
  %61 = getelementptr inbounds nuw i8, ptr %1, i64 64
  %62 = getelementptr inbounds nuw i8, ptr %1, i64 72
  store i32 177, ptr %62, align 8
  %63 = getelementptr inbounds nuw i8, ptr %1, i64 4
  store i32 3, ptr %63, align 4
  %64 = mul nuw nsw i64 %.1, 10
  %65 = udiv i64 %.1, 100000000
  %66 = getelementptr inbounds nuw i8, ptr %1, i64 16
  store i64 %65, ptr %66, align 8
  %67 = urem i64 %64, 1000000000
  %68 = trunc nuw nsw i64 %67 to i32
  %69 = getelementptr inbounds nuw i8, ptr %1, i64 24
  store i32 %68, ptr %69, align 8
  %70 = add i32 %.181, 4
  store i32 %70, ptr %61, align 8
  %71 = getelementptr inbounds nuw i8, ptr %1, i64 68
  store i32 %70, ptr %71, align 4
  br label %72

72:                                               ; preds = %.loopexit, %51
  call void @llvm.lifetime.end.p0(i64 8, ptr nonnull %5) #4
  ret i1 %50
}